target datalayout = "e-m:e-p270:32:32-p271:32:32-p272:64:64-i64:64-i128:128-f80:128-n8:16:32:64-S128"
target triple = "x86_64-unknown-linux-gnu"

%struct.ErrorPropagator = type { ptr, ptr }
%struct.ImageInfo = type { ptr, ptr, i8, i8, i8, i64, i64, i8, i64, i8, i8, i8, i8, ptr, ptr, ptr, i8, ptr, ptr, ptr }
%struct.BdrvChild = type { ptr, ptr, ptr, i32, ptr, i64, i64, i8, i8, %struct.anon.11, %struct.anon.12 }
%struct.anon.11 = type { ptr, ptr }
%struct.anon.12 = type { ptr, ptr }

@error_fatal = external global ptr, align 8
@.str = private unnamed_addr constant [21 x i8] c"../qemu/block/qapi.c\00", align 1
@.str.5 = private unnamed_addr constant [6 x i8] c"*errp\00", align 1
@__PRETTY_FUNCTION__.bdrv_query_image_info = private unnamed_addr constant [85 x i8] c"void bdrv_query_image_info(BlockDriverState *, ImageInfo **, _Bool, _Bool, Error **)\00", align 1

; Function Attrs: nounwind sspstrong uwtable
define internal void @error_propagator_cleanup(ptr noundef %prop) #0 {
entry:
  %prop.addr = alloca ptr, align 8
  store ptr %prop, ptr %prop.addr, align 8
  %0 = load ptr, ptr %prop.addr, align 8
  %errp = getelementptr inbounds %struct.ErrorPropagator, ptr %0, i32 0, i32 1
  %1 = load ptr, ptr %errp, align 8
  %2 = load ptr, ptr %prop.addr, align 8
  %local_err = getelementptr inbounds %struct.ErrorPropagator, ptr %2, i32 0, i32 0
  %3 = load ptr, ptr %local_err, align 8
  call void @error_propagate(ptr noundef %1, ptr noundef %3)
  ret void
}

; Function Attrs: nounwind sspstrong uwtable
define internal ptr @child_bs(ptr noundef %child) #0 {
entry:
  %child.addr = alloca ptr, align 8
  store ptr %child, ptr %child.addr, align 8
  %0 = load ptr, ptr %child.addr, align 8
  %tobool = icmp ne ptr %0, null
  br i1 %tobool, label %cond.true, label %cond.false

cond.true:                                        ; preds = %entry
  %1 = load ptr, ptr %child.addr, align 8
  %bs = getelementptr inbounds %struct.BdrvChild, ptr %1, i32 0, i32 0
  %2 = load ptr, ptr %bs, align 8
  br label %cond.end

cond.false:                                       ; preds = %entry
  br label %cond.end

cond.end:                                         ; preds = %cond.false, %cond.true
  %cond = phi ptr [ %2, %cond.true ], [ null, %cond.false ]
  ret ptr %cond
}

; Function Attrs: nounwind sspstrong uwtable
define internal void @glib_auto_cleanup_ErrorPropagator(ptr noundef %_ptr) #0 {
entry:
  %_ptr.addr = alloca ptr, align 8
  store ptr %_ptr, ptr %_ptr.addr, align 8
  %0 = load ptr, ptr %_ptr.addr, align 8
  call void @error_propagator_cleanup(ptr noundef %0)
  ret void
}

; Function Attrs: nounwind sspstrong uwtable
define internal ptr @bdrv_filter_or_cow_bs(ptr noundef %bs) #0 {
entry:
  %bs.addr = alloca ptr, align 8
  store ptr %bs, ptr %bs.addr, align 8
  br label %do.body

do.body:                                          ; preds = %entry
  br label %do.end

do.end:                                           ; preds = %do.body
  %0 = load ptr, ptr %bs.addr, align 8
  %call = call ptr @bdrv_filter_or_cow_child(ptr noundef %0)
  %call1 = call ptr @child_bs(ptr noundef %call)
  ret ptr %call1
}

; Function Attrs: nounwind sspstrong uwtable
define internal ptr @qapi_ImageInfo_base(ptr noundef %obj) #0 {
entry:
  %obj.addr = alloca ptr, align 8
  store ptr %obj, ptr %obj.addr, align 8
  %0 = load ptr, ptr %obj.addr, align 8
  ret ptr %0
}

; Function Attrs: nounwind sspstrong uwtable
define dso_local void @bdrv_query_image_info(ptr noundef %bs, ptr noundef %p_info, i1 noundef zeroext %flat, i1 noundef zeroext %skip_implicit_filters, ptr noundef %errp) #0 {
entry:
  %bs.addr = alloca ptr, align 8
  %p_info.addr = alloca ptr, align 8
  %flat.addr = alloca i8, align 1
  %skip_implicit_filters.addr = alloca i8, align 1
  %errp.addr = alloca ptr, align 8
  %info = alloca ptr, align 8
  %_auto_errp_prop = alloca %struct.ErrorPropagator, align 8
  %backing = alloca ptr, align 8
  %cleanup.dest.slot = alloca i32, align 4
  store ptr %bs, ptr %bs.addr, align 8
  store ptr %p_info, ptr %p_info.addr, align 8
  %frombool = zext i1 %flat to i8
  store i8 %frombool, ptr %flat.addr, align 1
  %frombool1 = zext i1 %skip_implicit_filters to i8
  store i8 %frombool1, ptr %skip_implicit_filters.addr, align 1
  store ptr %errp, ptr %errp.addr, align 8
  %local_err = getelementptr inbounds %struct.ErrorPropagator, ptr %_auto_errp_prop, i32 0, i32 0
  store ptr null, ptr %local_err, align 8
  %errp2 = getelementptr inbounds %struct.ErrorPropagator, ptr %_auto_errp_prop, i32 0, i32 1
  %0 = load ptr, ptr %errp.addr, align 8
  store ptr %0, ptr %errp2, align 8
  br label %do.body

do.body:                                          ; preds = %entry
  %1 = load ptr, ptr %errp.addr, align 8
  %tobool = icmp ne ptr %1, null
  br i1 %tobool, label %lor.lhs.false, label %if.then

lor.lhs.false:                                    ; preds = %do.body
  %2 = load ptr, ptr %errp.addr, align 8
  %cmp = icmp eq ptr %2, @error_fatal
  br i1 %cmp, label %if.then, label %if.end

if.then:                                          ; preds = %lor.lhs.false, %do.body
  %local_err3 = getelementptr inbounds %struct.ErrorPropagator, ptr %_auto_errp_prop, i32 0, i32 0
  store ptr %local_err3, ptr %errp.addr, align 8
  br label %if.end

if.end:                                           ; preds = %if.then, %lor.lhs.false
  br label %do.cond

do.cond:                                          ; preds = %if.end
  br label %do.end

do.end:                                           ; preds = %do.cond
  %call = call noalias ptr @g_malloc0_n(i64 noundef 1, i64 noundef 120) #10
  store ptr %call, ptr %info, align 8
  %3 = load ptr, ptr %bs.addr, align 8
  %4 = load ptr, ptr %info, align 8
  %call4 = call ptr @qapi_ImageInfo_base(ptr noundef %4)
  %5 = load ptr, ptr %errp.addr, align 8
  call void @bdrv_do_query_node_info(ptr noundef %3, ptr noundef %call4, ptr noundef %5)
  %6 = load ptr, ptr %errp.addr, align 8
  %7 = load ptr, ptr %6, align 8
  %tobool5 = icmp ne ptr %7, null
  br i1 %tobool5, label %if.then6, label %if.end7

if.then6:                                         ; preds = %do.end
  br label %fail

if.end7:                                          ; preds = %do.end
  %8 = load i8, ptr %flat.addr, align 1
  %tobool8 = trunc i8 %8 to i1
  br i1 %tobool8, label %if.end22, label %if.then9

if.then9:                                         ; preds = %if.end7
  %9 = load ptr, ptr %bs.addr, align 8
  %call10 = call ptr @bdrv_filter_or_cow_bs(ptr noundef %9)
  store ptr %call10, ptr %backing, align 8
  %10 = load i8, ptr %skip_implicit_filters.addr, align 1
  %tobool11 = trunc i8 %10 to i1
  br i1 %tobool11, label %if.then12, label %if.end14

if.then12:                                        ; preds = %if.then9
  %11 = load ptr, ptr %backing, align 8
  %call13 = call ptr @bdrv_skip_implicit_filters(ptr noundef %11)
  store ptr %call13, ptr %backing, align 8
  br label %if.end14

if.end14:                                         ; preds = %if.then12, %if.then9
  %12 = load ptr, ptr %backing, align 8
  %tobool15 = icmp ne ptr %12, null
  br i1 %tobool15, label %if.then16, label %if.end21

if.then16:                                        ; preds = %if.end14
  %13 = load ptr, ptr %backing, align 8
  %14 = load ptr, ptr %info, align 8
  %backing_image = getelementptr inbounds %struct.ImageInfo, ptr %14, i32 0, i32 19
  %15 = load i8, ptr %skip_implicit_filters.addr, align 1
  %tobool17 = trunc i8 %15 to i1
  %16 = load ptr, ptr %errp.addr, align 8
  call void @bdrv_query_image_info(ptr noundef %13, ptr noundef %backing_image, i1 noundef zeroext false, i1 noundef zeroext %tobool17, ptr noundef %16)
  %17 = load ptr, ptr %errp.addr, align 8
  %18 = load ptr, ptr %17, align 8
  %tobool18 = icmp ne ptr %18, null
  br i1 %tobool18, label %if.then19, label %if.end20

if.then19:                                        ; preds = %if.then16
  br label %fail

if.end20:                                         ; preds = %if.then16
  br label %if.end21

if.end21:                                         ; preds = %if.end20, %if.end14
  br label %if.end22

if.end22:                                         ; preds = %if.end21, %if.end7
  %19 = load ptr, ptr %info, align 8
  %20 = load ptr, ptr %p_info.addr, align 8
  store ptr %19, ptr %20, align 8
  store i32 1, ptr %cleanup.dest.slot, align 4
  br label %cleanup

fail:                                             ; preds = %if.then19, %if.then6
  %21 = load ptr, ptr %errp.addr, align 8
  %22 = load ptr, ptr %21, align 8
  %tobool23 = icmp ne ptr %22, null
  br i1 %tobool23, label %if.then24, label %if.else

if.then24:                                        ; preds = %fail
  br label %if.end25

if.else:                                          ; preds = %fail
  call void @__assert_fail(ptr noundef @.str.5, ptr noundef @.str, i32 noundef 372, ptr noundef @__PRETTY_FUNCTION__.bdrv_query_image_info) #11
  unreachable

if.end25:                                         ; preds = %if.then24
  %23 = load ptr, ptr %info, align 8
  call void @qapi_free_ImageInfo(ptr noundef %23)
  store i32 0, ptr %cleanup.dest.slot, align 4
  br label %cleanup

cleanup:                                          ; preds = %if.end25, %if.end22
  call void @glib_auto_cleanup_ErrorPropagator(ptr noundef %_auto_errp_prop)
  %cleanup.dest = load i32, ptr %cleanup.dest.slot, align 4
  switch i32 %cleanup.dest, label %unreachable [
    i32 0, label %cleanup.cont
    i32 1, label %cleanup.cont
  ]

cleanup.cont:                                     ; preds = %cleanup, %cleanup
  ret void

unreachable:                                      ; preds = %cleanup
  unreachable
}