; Function Attrs: nounwind sspstrong uwtable
define dso_local void @bdrv_query_image_info(ptr noundef %bs, ptr noundef writeonly captures(none) %p_info, i1 noundef zeroext %flat, i1 noundef zeroext %skip_implicit_filters, ptr noundef %errp) local_unnamed_addr #0 {
entry:
  %_auto_errp_prop = alloca %struct.ErrorPropagator, align 8
  store ptr null, ptr %_auto_errp_prop, align 8
  %errp2 = getelementptr inbounds nuw i8, ptr %_auto_errp_prop, i64 8
  store ptr %errp, ptr %errp2, align 8
  %tobool = icmp eq ptr %errp, null
  %cmp = icmp eq ptr %errp, @error_fatal
  %or.cond = or i1 %tobool, %cmp
  %spec.select = select i1 %or.cond, ptr %_auto_errp_prop, ptr %errp
  %call = tail call noalias dereferenceable_or_null(120) ptr @g_malloc0_n(i64 noundef 1, i64 noundef 120) #12
  call fastcc void @bdrv_do_query_node_info(ptr noundef %bs, ptr noundef %call, ptr noundef %spec.select)
  %0 = load ptr, ptr %spec.select, align 8
  %tobool5.not = icmp eq ptr %0, null
  br i1 %tobool5.not, label %if.end7, label %if.end25

if.end7:                                          ; preds = %entry
  br i1 %flat, label %if.end22, label %if.then9

if.then9:                                         ; preds = %if.end7
  %call.i = call ptr @bdrv_filter_or_cow_child(ptr noundef %bs) #10
  %tobool.not.i.i = icmp eq ptr %call.i, null
  br i1 %tobool.not.i.i, label %bdrv_filter_or_cow_bs.exit, label %cond.true.i.i

cond.true.i.i:                                    ; preds = %if.then9
  %1 = load ptr, ptr %call.i, align 8
  br label %bdrv_filter_or_cow_bs.exit

bdrv_filter_or_cow_bs.exit:                       ; preds = %if.then9, %cond.true.i.i
  %cond.i.i = phi ptr [ %1, %cond.true.i.i ], [ null, %if.then9 ]
  br i1 %skip_implicit_filters, label %if.then12, label %if.end14

if.then12:                                        ; preds = %bdrv_filter_or_cow_bs.exit
  %call13 = call ptr @bdrv_skip_implicit_filters(ptr noundef %cond.i.i) #10
  br label %if.end14

if.end14:                                         ; preds = %if.then12, %bdrv_filter_or_cow_bs.exit
  %backing.0 = phi ptr [ %call13, %if.then12 ], [ %cond.i.i, %bdrv_filter_or_cow_bs.exit ]
  %tobool15.not = icmp eq ptr %backing.0, null
  br i1 %tobool15.not, label %if.end22, label %if.then16

if.then16:                                        ; preds = %if.end14
  %backing_image = getelementptr inbounds nuw i8, ptr %call, i64 112
  call void @bdrv_query_image_info(ptr noundef nonnull %backing.0, ptr noundef nonnull %backing_image, i1 noundef zeroext false, i1 noundef zeroext %skip_implicit_filters, ptr noundef nonnull %spec.select)
  %2 = load ptr, ptr %spec.select, align 8
  %tobool18.not = icmp eq ptr %2, null
  br i1 %tobool18.not, label %if.end22, label %if.end25

if.end22:                                         ; preds = %if.end14, %if.then16, %if.end7
  store ptr %call, ptr %p_info, align 8
  br label %cleanup

if.end25:                                         ; preds = %entry, %if.then16
  call void @qapi_free_ImageInfo(ptr noundef %call) #10
  br label %cleanup

cleanup:                                          ; preds = %if.end25, %if.end22
  %_auto_errp_prop.val = load ptr, ptr %_auto_errp_prop, align 8
  %_auto_errp_prop.val15 = load ptr, ptr %errp2, align 8
  call void @error_propagate(ptr noundef %_auto_errp_prop.val15, ptr noundef %_auto_errp_prop.val) #10
  ret void
}